; Function Attrs: nounwind uwtable
define zeroext range(i8 0, 2) i8 @l_Array_anyMUnsafe_any___at___private_Lean_Server_Completion_CompletionInfoSelection_0__Lean_Server_Completion_filterDuplicateCompletionInfos___spec__1(ptr noundef %0, ptr noundef readonly captures(none) %1, i64 noundef %2, i64 noundef %3) local_unnamed_addr #0 {
  %.not49 = icmp eq i64 %2, %3
  br i1 %.not49, label %._crit_edge, label %.lr.ph

.lr.ph:                                           ; preds = %4
  %5 = getelementptr inbounds nuw i8, ptr %1, i64 24
  %6 = getelementptr inbounds nuw i8, ptr %0, i64 24
  br label %9

7:                                                ; preds = %lean_inc.exit
  %8 = add i64 %.02150, 1
  %.not = icmp eq i64 %8, %3
  br i1 %.not, label %._crit_edge, label %9

9:                                                ; preds = %.lr.ph, %7
  %.02150 = phi i64 [ %2, %.lr.ph ], [ %8, %7 ]
  %10 = getelementptr inbounds nuw [0 x ptr], ptr %5, i64 0, i64 %.02150
  %11 = load ptr, ptr %10, align 8, !tbaa !4
  %12 = ptrtoint ptr %11 to i64
  %13 = and i64 %12, 1
  %.not.i33 = icmp eq i64 %13, 0
  br i1 %.not.i33, label %14, label %lean_array_uget.exit

14:                                               ; preds = %9
  %.val.i.i = load i32, ptr %11, align 4, !tbaa !8
  %15 = icmp sgt i32 %.val.i.i, 0
  br i1 %15, label %16, label %18, !prof !11

16:                                               ; preds = %14
  %17 = add nuw i32 %.val.i.i, 1
  store i32 %17, ptr %11, align 4, !tbaa !8
  br label %lean_array_uget.exit

18:                                               ; preds = %14
  %.not.i.i = icmp eq i32 %.val.i.i, 0
  br i1 %.not.i.i, label %lean_array_uget.exit, label %19

19:                                               ; preds = %18
  tail call void @lean_inc_ref_cold(ptr noundef nonnull %11) #4
  br label %lean_array_uget.exit

lean_array_uget.exit:                             ; preds = %9, %16, %18, %19
  %20 = getelementptr inbounds nuw i8, ptr %11, i64 24
  %21 = load ptr, ptr %20, align 8, !tbaa !4
  %22 = ptrtoint ptr %21 to i64
  %23 = and i64 %22, 1
  %.not45 = icmp eq i64 %23, 0
  br i1 %.not45, label %24, label %lean_inc.exit26

24:                                               ; preds = %lean_array_uget.exit
  %.val.i = load i32, ptr %21, align 4, !tbaa !8
  %25 = icmp sgt i32 %.val.i, 0
  br i1 %25, label %26, label %28, !prof !11

26:                                               ; preds = %24
  %27 = add nuw i32 %.val.i, 1
  store i32 %27, ptr %21, align 4, !tbaa !8
  br label %lean_inc.exit26

28:                                               ; preds = %24
  %.not.i34 = icmp eq i32 %.val.i, 0
  br i1 %.not.i34, label %lean_inc.exit26, label %29

29:                                               ; preds = %28
  tail call void @lean_inc_ref_cold(ptr noundef nonnull %21) #4
  br label %lean_inc.exit26

lean_inc.exit26:                                  ; preds = %29, %28, %26, %lean_array_uget.exit
  br i1 %.not.i33, label %30, label %lean_dec.exit28

30:                                               ; preds = %lean_inc.exit26
  %31 = load i32, ptr %11, align 4, !tbaa !8
  %32 = icmp sgt i32 %31, 1
  br i1 %32, label %33, label %35, !prof !11

33:                                               ; preds = %30
  %34 = add nsw i32 %31, -1
  store i32 %34, ptr %11, align 4, !tbaa !8
  br label %lean_dec.exit28

35:                                               ; preds = %30
  %.not.i = icmp eq i32 %31, 0
  br i1 %.not.i, label %lean_dec.exit28, label %36

36:                                               ; preds = %35
  tail call void @lean_dec_ref_cold(ptr noundef nonnull %11) #4
  br label %lean_dec.exit28

lean_dec.exit28:                                  ; preds = %36, %35, %33, %lean_inc.exit26
  %37 = load ptr, ptr %6, align 8, !tbaa !4
  %38 = ptrtoint ptr %37 to i64
  %39 = and i64 %38, 1
  %.not47 = icmp eq i64 %39, 0
  br i1 %.not47, label %40, label %lean_inc.exit

40:                                               ; preds = %lean_dec.exit28
  %.val.i35 = load i32, ptr %37, align 4, !tbaa !8
  %41 = icmp sgt i32 %.val.i35, 0
  br i1 %41, label %42, label %44, !prof !11

42:                                               ; preds = %40
  %43 = add nuw i32 %.val.i35, 1
  store i32 %43, ptr %37, align 4, !tbaa !8
  br label %lean_inc.exit

44:                                               ; preds = %40
  %.not.i36 = icmp eq i32 %.val.i35, 0
  br i1 %.not.i36, label %lean_inc.exit, label %45

45:                                               ; preds = %44
  tail call void @lean_inc_ref_cold(ptr noundef nonnull %37) #4
  br label %lean_inc.exit

lean_inc.exit:                                    ; preds = %45, %44, %42, %lean_dec.exit28
  %46 = tail call zeroext i8 @l___private_Lean_Server_Completion_CompletionInfoSelection_0__Lean_Server_Completion_filterDuplicateCompletionInfos_eq(ptr noundef %21, ptr noundef %37)
  %47 = icmp eq i8 %46, 0
  br i1 %47, label %7, label %48

48:                                               ; preds = %lean_inc.exit
  %49 = ptrtoint ptr %0 to i64
  %50 = and i64 %49, 1
  %.not48 = icmp eq i64 %50, 0
  br i1 %.not48, label %51, label %67

51:                                               ; preds = %48
  %52 = load i32, ptr %0, align 4, !tbaa !8
  %53 = icmp sgt i32 %52, 1
  br i1 %53, label %54, label %56, !prof !11

54:                                               ; preds = %51
  %55 = add nsw i32 %52, -1
  store i32 %55, ptr %0, align 4, !tbaa !8
  br label %67

56:                                               ; preds = %51
  %.not.i29 = icmp eq i32 %52, 0
  br i1 %.not.i29, label %67, label %57

57:                                               ; preds = %56
  tail call void @lean_dec_ref_cold(ptr noundef nonnull %0) #4
  br label %67

._crit_edge:                                      ; preds = %7, %4
  %58 = ptrtoint ptr %0 to i64
  %59 = and i64 %58, 1
  %.not44 = icmp eq i64 %59, 0
  br i1 %.not44, label %60, label %67

60:                                               ; preds = %._crit_edge
  %61 = load i32, ptr %0, align 4, !tbaa !8
  %62 = icmp sgt i32 %61, 1
  br i1 %62, label %63, label %65, !prof !11

63:                                               ; preds = %60
  %64 = add nsw i32 %61, -1
  store i32 %64, ptr %0, align 4, !tbaa !8
  br label %67

65:                                               ; preds = %60
  %.not.i31 = icmp eq i32 %61, 0
  br i1 %.not.i31, label %67, label %66

66:                                               ; preds = %65
  tail call void @lean_dec_ref_cold(ptr noundef nonnull %0) #4
  br label %67

67:                                               ; preds = %57, %56, %54, %48, %66, %65, %63, %._crit_edge
  %.2.ph = phi i8 [ 0, %._crit_edge ], [ 0, %63 ], [ 0, %65 ], [ 0, %66 ], [ 1, %48 ], [ 1, %54 ], [ 1, %56 ], [ 1, %57 ]
  ret i8 %.2.ph
}